target datalayout = "e-m:e-p270:32:32-p271:32:32-p272:64:64-i64:64-i128:128-f80:128-n8:16:32:64-S128"
target triple = "x86_64-pc-linux-gnu"

%union.anon = type { i32 }
%"struct.duckdb_lz4::LZ4_stream_t_internal" = type { [4096 x i32], ptr, ptr, i32, i32, i32 }

@__const._ZN10duckdb_lz4L18LZ4_isLittleEndianEv.one = private unnamed_addr constant %union.anon { i32 1 }, align 4

; Function Attrs: mustprogress nounwind uwtable
define internal noundef i32 @_ZN10duckdb_lz4L18LZ4_isLittleEndianEv() #0 {
  %1 = alloca %union.anon, align 4
  call void @llvm.lifetime.start.p0(i64 4, ptr %1) #9
  call void @llvm.memcpy.p0.p0.i64(ptr align 4 %1, ptr align 4 @__const._ZN10duckdb_lz4L18LZ4_isLittleEndianEv.one, i64 4, i1 false)
  %2 = getelementptr inbounds [4 x i8], ptr %1, i64 0, i64 0
  %3 = load i8, ptr %2, align 4, !tbaa !25
  %4 = zext i8 %3 to i32
  call void @llvm.lifetime.end.p0(i64 4, ptr %1) #9
  ret i32 %4
}

; Function Attrs: mustprogress nounwind uwtable
define internal noundef i32 @_ZN10duckdb_lz4L9LZ4_hash4EjNS_11tableType_tE(i32 noundef %0, i32 noundef %1) #0 {
  %3 = alloca i32, align 4
  %4 = alloca i32, align 4
  %5 = alloca i32, align 4
  store i32 %0, ptr %4, align 4, !tbaa !3
  store i32 %1, ptr %5, align 4, !tbaa !13
  %6 = load i32, ptr %5, align 4, !tbaa !13
  %7 = icmp eq i32 %6, 3
  br i1 %7, label %8, label %12

8:                                                ; preds = %2
  %9 = load i32, ptr %4, align 4, !tbaa !3
  %10 = mul i32 %9, -1640531535
  %11 = lshr i32 %10, 19
  store i32 %11, ptr %3, align 4
  br label %16

12:                                               ; preds = %2
  %13 = load i32, ptr %4, align 4, !tbaa !3
  %14 = mul i32 %13, -1640531535
  %15 = lshr i32 %14, 20
  store i32 %15, ptr %3, align 4
  br label %16

16:                                               ; preds = %12, %8
  %17 = load i32, ptr %3, align 4
  ret i32 %17
}

; Function Attrs: mustprogress nounwind uwtable
define internal noundef i32 @_ZN10duckdb_lz4L10LZ4_read32EPKv(ptr noundef %0) #0 {
  %2 = alloca ptr, align 8
  store ptr %0, ptr %2, align 8, !tbaa !7
  %3 = load ptr, ptr %2, align 8, !tbaa !7
  %4 = load i32, ptr %3, align 1, !tbaa !25
  ret i32 %4
}

; Function Attrs: mustprogress uwtable
define internal noundef i32 @_ZN10duckdb_lz4L9LZ4_hash5EmNS_11tableType_tE(i64 noundef %0, i32 noundef %1) #1 {
  %3 = alloca i32, align 4
  %4 = alloca i64, align 8
  %5 = alloca i32, align 4
  %6 = alloca i32, align 4
  %7 = alloca i64, align 8
  %8 = alloca i32, align 4
  %9 = alloca i64, align 8
  store i64 %0, ptr %4, align 8, !tbaa !15
  store i32 %1, ptr %5, align 4, !tbaa !13
  call void @llvm.lifetime.start.p0(i64 4, ptr %6) #9
  %10 = load i32, ptr %5, align 4, !tbaa !13
  %11 = icmp eq i32 %10, 3
  %12 = select i1 %11, i32 13, i32 12
  store i32 %12, ptr %6, align 4, !tbaa !3
  %13 = call noundef i32 @_ZN10duckdb_lz4L18LZ4_isLittleEndianEv()
  %14 = icmp ne i32 %13, 0
  br i1 %14, label %15, label %24

15:                                               ; preds = %2
  call void @llvm.lifetime.start.p0(i64 8, ptr %7) #9
  store i64 889523592379, ptr %7, align 8, !tbaa !15
  %16 = load i64, ptr %4, align 8, !tbaa !15
  %17 = shl i64 %16, 24
  %18 = mul i64 %17, 889523592379
  %19 = load i32, ptr %6, align 4, !tbaa !3
  %20 = sub i32 64, %19
  %21 = zext i32 %20 to i64
  %22 = lshr i64 %18, %21
  %23 = trunc i64 %22 to i32
  store i32 %23, ptr %3, align 4
  store i32 1, ptr %8, align 4
  call void @llvm.lifetime.end.p0(i64 8, ptr %7) #9
  br label %33

24:                                               ; preds = %2
  call void @llvm.lifetime.start.p0(i64 8, ptr %9) #9
  store i64 -7046029288634856825, ptr %9, align 8, !tbaa !15
  %25 = load i64, ptr %4, align 8, !tbaa !15
  %26 = lshr i64 %25, 24
  %27 = mul i64 %26, -7046029288634856825
  %28 = load i32, ptr %6, align 4, !tbaa !3
  %29 = sub i32 64, %28
  %30 = zext i32 %29 to i64
  %31 = lshr i64 %27, %30
  %32 = trunc i64 %31 to i32
  store i32 %32, ptr %3, align 4
  store i32 1, ptr %8, align 4
  call void @llvm.lifetime.end.p0(i64 8, ptr %9) #9
  br label %33

33:                                               ; preds = %24, %15
  call void @llvm.lifetime.end.p0(i64 4, ptr %6) #9
  %34 = load i32, ptr %3, align 4
  ret i32 %34
}

; Function Attrs: mustprogress nounwind uwtable
define internal noundef i64 @_ZN10duckdb_lz4L13LZ4_read_ARCHEPKv(ptr noundef %0) #0 {
  %2 = alloca ptr, align 8
  store ptr %0, ptr %2, align 8, !tbaa !7
  %3 = load ptr, ptr %2, align 8, !tbaa !7
  %4 = load i64, ptr %3, align 1, !tbaa !25
  ret i64 %4
}

; Function Attrs: mustprogress nounwind uwtable
define internal void @_ZN10duckdb_lz4L21LZ4_putPositionOnHashEPKhjPvNS_11tableType_tES1_(ptr noundef %0, i32 noundef %1, ptr noundef %2, i32 noundef %3, ptr noundef %4) #0 {
  %6 = alloca ptr, align 8
  %7 = alloca i32, align 4
  %8 = alloca ptr, align 8
  %9 = alloca i32, align 4
  %10 = alloca ptr, align 8
  %11 = alloca ptr, align 8
  %12 = alloca ptr, align 8
  %13 = alloca ptr, align 8
  store ptr %0, ptr %6, align 8, !tbaa !9
  store i32 %1, ptr %7, align 4, !tbaa !3
  store ptr %2, ptr %8, align 8, !tbaa !7
  store i32 %3, ptr %9, align 4, !tbaa !13
  store ptr %4, ptr %10, align 8, !tbaa !9
  %14 = load i32, ptr %9, align 4, !tbaa !13
  switch i32 %14, label %47 [
    i32 0, label %15
    i32 1, label %16
    i32 2, label %23
    i32 3, label %35
  ]

15:                                               ; preds = %5
  br label %47

16:                                               ; preds = %5
  call void @llvm.lifetime.start.p0(i64 8, ptr %11) #9
  %17 = load ptr, ptr %8, align 8, !tbaa !7
  store ptr %17, ptr %11, align 8, !tbaa !37
  %18 = load ptr, ptr %6, align 8, !tbaa !9
  %19 = load ptr, ptr %11, align 8, !tbaa !37
  %20 = load i32, ptr %7, align 4, !tbaa !3
  %21 = zext i32 %20 to i64
  %22 = getelementptr inbounds nuw ptr, ptr %19, i64 %21
  store ptr %18, ptr %22, align 8, !tbaa !9
  call void @llvm.lifetime.end.p0(i64 8, ptr %11) #9
  br label %47

23:                                               ; preds = %5
  call void @llvm.lifetime.start.p0(i64 8, ptr %12) #9
  %24 = load ptr, ptr %8, align 8, !tbaa !7
  store ptr %24, ptr %12, align 8, !tbaa !17
  %25 = load ptr, ptr %6, align 8, !tbaa !9
  %26 = load ptr, ptr %10, align 8, !tbaa !9
  %27 = ptrtoint ptr %25 to i64
  %28 = ptrtoint ptr %26 to i64
  %29 = sub i64 %27, %28
  %30 = trunc i64 %29 to i32
  %31 = load ptr, ptr %12, align 8, !tbaa !17
  %32 = load i32, ptr %7, align 4, !tbaa !3
  %33 = zext i32 %32 to i64
  %34 = getelementptr inbounds nuw i32, ptr %31, i64 %33
  store i32 %30, ptr %34, align 4, !tbaa !3
  call void @llvm.lifetime.end.p0(i64 8, ptr %12) #9
  br label %47

35:                                               ; preds = %5
  call void @llvm.lifetime.start.p0(i64 8, ptr %13) #9
  %36 = load ptr, ptr %8, align 8, !tbaa !7
  store ptr %36, ptr %13, align 8, !tbaa !65
  %37 = load ptr, ptr %6, align 8, !tbaa !9
  %38 = load ptr, ptr %10, align 8, !tbaa !9
  %39 = ptrtoint ptr %37 to i64
  %40 = ptrtoint ptr %38 to i64
  %41 = sub i64 %39, %40
  %42 = trunc i64 %41 to i16
  %43 = load ptr, ptr %13, align 8, !tbaa !65
  %44 = load i32, ptr %7, align 4, !tbaa !3
  %45 = zext i32 %44 to i64
  %46 = getelementptr inbounds nuw i16, ptr %43, i64 %45
  store i16 %42, ptr %46, align 2, !tbaa !67
  call void @llvm.lifetime.end.p0(i64 8, ptr %13) #9
  br label %47

47:                                               ; preds = %15, %16, %23, %35, %5
  ret void
}

; Function Attrs: mustprogress uwtable
define internal noundef i32 @_ZN10duckdb_lz4L16LZ4_hashPositionEPKvNS_11tableType_tE(ptr noundef %0, i32 noundef %1) #1 {
  %3 = alloca i32, align 4
  %4 = alloca ptr, align 8
  %5 = alloca i32, align 4
  store ptr %0, ptr %4, align 8, !tbaa !7
  store i32 %1, ptr %5, align 4, !tbaa !13
  %6 = load i32, ptr %5, align 4, !tbaa !13
  %7 = icmp ne i32 %6, 3
  br i1 %7, label %8, label %13

8:                                                ; preds = %2
  %9 = load ptr, ptr %4, align 8, !tbaa !7
  %10 = call noundef i64 @_ZN10duckdb_lz4L13LZ4_read_ARCHEPKv(ptr noundef %9)
  %11 = load i32, ptr %5, align 4, !tbaa !13
  %12 = call noundef i32 @_ZN10duckdb_lz4L9LZ4_hash5EmNS_11tableType_tE(i64 noundef %10, i32 noundef %11)
  store i32 %12, ptr %3, align 4
  br label %18

13:                                               ; preds = %2
  %14 = load ptr, ptr %4, align 8, !tbaa !7
  %15 = call noundef i32 @_ZN10duckdb_lz4L10LZ4_read32EPKv(ptr noundef %14)
  %16 = load i32, ptr %5, align 4, !tbaa !13
  %17 = call noundef i32 @_ZN10duckdb_lz4L9LZ4_hash4EjNS_11tableType_tE(i32 noundef %15, i32 noundef %16)
  store i32 %17, ptr %3, align 4
  br label %18

18:                                               ; preds = %13, %8
  %19 = load i32, ptr %3, align 4
  ret i32 %19
}

; Function Attrs: mustprogress uwtable
define internal void @_ZN10duckdb_lz4L15LZ4_putPositionEPKhPvNS_11tableType_tES1_(ptr noundef %0, ptr noundef %1, i32 noundef %2, ptr noundef %3) #1 {
  %5 = alloca ptr, align 8
  %6 = alloca ptr, align 8
  %7 = alloca i32, align 4
  %8 = alloca ptr, align 8
  %9 = alloca i32, align 4
  store ptr %0, ptr %5, align 8, !tbaa !9
  store ptr %1, ptr %6, align 8, !tbaa !7
  store i32 %2, ptr %7, align 4, !tbaa !13
  store ptr %3, ptr %8, align 8, !tbaa !9
  call void @llvm.lifetime.start.p0(i64 4, ptr %9) #9
  %10 = load ptr, ptr %5, align 8, !tbaa !9
  %11 = load i32, ptr %7, align 4, !tbaa !13
  %12 = call noundef i32 @_ZN10duckdb_lz4L16LZ4_hashPositionEPKvNS_11tableType_tE(ptr noundef %10, i32 noundef %11)
  store i32 %12, ptr %9, align 4, !tbaa !3
  %13 = load ptr, ptr %5, align 8, !tbaa !9
  %14 = load i32, ptr %9, align 4, !tbaa !3
  %15 = load ptr, ptr %6, align 8, !tbaa !7
  %16 = load i32, ptr %7, align 4, !tbaa !13
  %17 = load ptr, ptr %8, align 8, !tbaa !9
  call void @_ZN10duckdb_lz4L21LZ4_putPositionOnHashEPKhjPvNS_11tableType_tES1_(ptr noundef %13, i32 noundef %14, ptr noundef %15, i32 noundef %16, ptr noundef %17)
  call void @llvm.lifetime.end.p0(i64 4, ptr %9) #9
  ret void
}

; Function Attrs: mustprogress nounwind uwtable
define void @_ZN10duckdb_lz415LZ4_resetStreamEPNS_12LZ4_stream_uE(ptr noundef %0) #0 {
  %2 = alloca ptr, align 8
  store ptr %0, ptr %2, align 8, !tbaa !32
  %3 = load ptr, ptr %2, align 8, !tbaa !32
  call void @llvm.memset.p0.i64(ptr align 8 %3, i8 0, i64 16416, i1 false)
  ret void
}

; Function Attrs: mustprogress uwtable
define noundef i32 @_ZN10duckdb_lz412LZ4_loadDictEPNS_12LZ4_stream_uEPKci(ptr noundef %0, ptr noundef %1, i32 noundef %2) #1 {
  %4 = alloca i32, align 4
  %5 = alloca ptr, align 8
  %6 = alloca ptr, align 8
  %7 = alloca i32, align 4
  %8 = alloca ptr, align 8
  %9 = alloca i32, align 4
  %10 = alloca ptr, align 8
  %11 = alloca ptr, align 8
  %12 = alloca ptr, align 8
  %13 = alloca i32, align 4
  store ptr %0, ptr %5, align 8, !tbaa !32
  store ptr %1, ptr %6, align 8, !tbaa !9
  store i32 %2, ptr %7, align 4, !tbaa !3
  call void @llvm.lifetime.start.p0(i64 8, ptr %8) #9
  %14 = load ptr, ptr %5, align 8, !tbaa !32
  store ptr %14, ptr %8, align 8, !tbaa !11
  call void @llvm.lifetime.start.p0(i64 4, ptr %9) #9
  store i32 2, ptr %9, align 4, !tbaa !13
  call void @llvm.lifetime.start.p0(i64 8, ptr %10) #9
  %15 = load ptr, ptr %6, align 8, !tbaa !9
  store ptr %15, ptr %10, align 8, !tbaa !9
  call void @llvm.lifetime.start.p0(i64 8, ptr %11) #9
  %16 = load ptr, ptr %10, align 8, !tbaa !9
  %17 = load i32, ptr %7, align 4, !tbaa !3
  %18 = sext i32 %17 to i64
  %19 = getelementptr inbounds i8, ptr %16, i64 %18
  store ptr %19, ptr %11, align 8, !tbaa !9
  call void @llvm.lifetime.start.p0(i64 8, ptr %12) #9
  %20 = load ptr, ptr %5, align 8, !tbaa !32
  call void @_ZN10duckdb_lz415LZ4_resetStreamEPNS_12LZ4_stream_uE(ptr noundef %20)
  %21 = load ptr, ptr %8, align 8, !tbaa !11
  %22 = getelementptr inbounds nuw %"struct.duckdb_lz4::LZ4_stream_t_internal", ptr %21, i32 0, i32 3
  %23 = load i32, ptr %22, align 8, !tbaa !26
  %24 = add i32 %23, 65536
  store i32 %24, ptr %22, align 8, !tbaa !26
  %25 = load i32, ptr %7, align 4, !tbaa !3
  %26 = icmp slt i32 %25, 8
  br i1 %26, label %27, label %28

27:                                               ; preds = %3
  store i32 0, ptr %4, align 4
  store i32 1, ptr %13, align 4
  br label %76

28:                                               ; preds = %3
  %29 = load ptr, ptr %11, align 8, !tbaa !9
  %30 = load ptr, ptr %10, align 8, !tbaa !9
  %31 = ptrtoint ptr %29 to i64
  %32 = ptrtoint ptr %30 to i64
  %33 = sub i64 %31, %32
  %34 = icmp sgt i64 %33, 65536
  br i1 %34, label %35, label %38

35:                                               ; preds = %28
  %36 = load ptr, ptr %11, align 8, !tbaa !9
  %37 = getelementptr inbounds i8, ptr %36, i64 -65536
  store ptr %37, ptr %10, align 8, !tbaa !9
  br label %38

38:                                               ; preds = %35, %28
  %39 = load ptr, ptr %11, align 8, !tbaa !9
  %40 = load ptr, ptr %8, align 8, !tbaa !11
  %41 = getelementptr inbounds nuw %"struct.duckdb_lz4::LZ4_stream_t_internal", ptr %40, i32 0, i32 3
  %42 = load i32, ptr %41, align 8, !tbaa !26
  %43 = zext i32 %42 to i64
  %44 = sub i64 0, %43
  %45 = getelementptr inbounds i8, ptr %39, i64 %44
  store ptr %45, ptr %12, align 8, !tbaa !9
  %46 = load ptr, ptr %10, align 8, !tbaa !9
  %47 = load ptr, ptr %8, align 8, !tbaa !11
  %48 = getelementptr inbounds nuw %"struct.duckdb_lz4::LZ4_stream_t_internal", ptr %47, i32 0, i32 1
  store ptr %46, ptr %48, align 8, !tbaa !30
  %49 = load ptr, ptr %11, align 8, !tbaa !9
  %50 = load ptr, ptr %10, align 8, !tbaa !9
  %51 = ptrtoint ptr %49 to i64
  %52 = ptrtoint ptr %50 to i64
  %53 = sub i64 %51, %52
  %54 = trunc i64 %53 to i32
  %55 = load ptr, ptr %8, align 8, !tbaa !11
  %56 = getelementptr inbounds nuw %"struct.duckdb_lz4::LZ4_stream_t_internal", ptr %55, i32 0, i32 5
  store i32 %54, ptr %56, align 8, !tbaa !31
  %57 = load ptr, ptr %8, align 8, !tbaa !11
  %58 = getelementptr inbounds nuw %"struct.duckdb_lz4::LZ4_stream_t_internal", ptr %57, i32 0, i32 4
  store i32 2, ptr %58, align 4, !tbaa !28
  br label %59

59:                                               ; preds = %64, %38
  %60 = load ptr, ptr %10, align 8, !tbaa !9
  %61 = load ptr, ptr %11, align 8, !tbaa !9
  %62 = getelementptr inbounds i8, ptr %61, i64 -8
  %63 = icmp ule ptr %60, %62
  br i1 %63, label %64, label %72

64:                                               ; preds = %59
  %65 = load ptr, ptr %10, align 8, !tbaa !9
  %66 = load ptr, ptr %8, align 8, !tbaa !11
  %67 = getelementptr inbounds nuw %"struct.duckdb_lz4::LZ4_stream_t_internal", ptr %66, i32 0, i32 0
  %68 = getelementptr inbounds [4096 x i32], ptr %67, i64 0, i64 0
  %69 = load ptr, ptr %12, align 8, !tbaa !9
  call void @_ZN10duckdb_lz4L15LZ4_putPositionEPKhPvNS_11tableType_tES1_(ptr noundef %65, ptr noundef %68, i32 noundef 2, ptr noundef %69)
  %70 = load ptr, ptr %10, align 8, !tbaa !9
  %71 = getelementptr inbounds i8, ptr %70, i64 3
  store ptr %71, ptr %10, align 8, !tbaa !9
  br label %59, !llvm.loop !34

72:                                               ; preds = %59
  %73 = load ptr, ptr %8, align 8, !tbaa !11
  %74 = getelementptr inbounds nuw %"struct.duckdb_lz4::LZ4_stream_t_internal", ptr %73, i32 0, i32 5
  %75 = load i32, ptr %74, align 8, !tbaa !31
  store i32 %75, ptr %4, align 4
  store i32 1, ptr %13, align 4
  br label %76

76:                                               ; preds = %72, %27
  call void @llvm.lifetime.end.p0(i64 8, ptr %12) #9
  call void @llvm.lifetime.end.p0(i64 8, ptr %11) #9
  call void @llvm.lifetime.end.p0(i64 8, ptr %10) #9
  call void @llvm.lifetime.end.p0(i64 4, ptr %9) #9
  call void @llvm.lifetime.end.p0(i64 8, ptr %8) #9
  %77 = load i32, ptr %4, align 4
  ret i32 %77
}