; Function Attrs: mustprogress nofree norecurse nosync nounwind memory(argmem: readwrite) uwtable
define noundef i32 @_ZN10duckdb_lz412LZ4_loadDictEPNS_12LZ4_stream_uEPKci(ptr noundef writeonly captures(none) initializes((0, 16416)) %0, ptr noundef %1, i32 noundef %2) local_unnamed_addr #10 {
  tail call void @llvm.memset.p0.i64(ptr noundef nonnull align 8 dereferenceable(16416) %0, i8 0, i64 16416, i1 false)
  %4 = getelementptr inbounds nuw i8, ptr %0, i64 16400
  store i32 65536, ptr %4, align 8, !tbaa !8
  %5 = icmp slt i32 %2, 8
  br i1 %5, label %.loopexit, label %6

6:                                                ; preds = %3
  %7 = zext nneg i32 %2 to i64
  %8 = getelementptr inbounds nuw i8, ptr %1, i64 %7
  %9 = ptrtoint ptr %8 to i64
  %10 = icmp samesign ugt i32 %2, 65536
  %11 = getelementptr inbounds i8, ptr %8, i64 -65536
  %spec.select = select i1 %10, ptr %11, ptr %1
  %12 = getelementptr inbounds nuw i8, ptr %0, i64 16384
  store ptr %spec.select, ptr %12, align 8, !tbaa !14
  %13 = ptrtoint ptr %spec.select to i64
  %14 = sub i64 %9, %13
  %15 = trunc i64 %14 to i32
  %16 = getelementptr inbounds nuw i8, ptr %0, i64 16408
  store i32 %15, ptr %16, align 8, !tbaa !15
  %17 = getelementptr inbounds nuw i8, ptr %0, i64 16404
  store i32 2, ptr %17, align 4, !tbaa !16
  %18 = getelementptr inbounds i8, ptr %8, i64 -8
  %.not26 = icmp ugt ptr %spec.select, %18
  br i1 %.not26, label %.loopexit, label %.lr.ph

.lr.ph:                                           ; preds = %6
  %19 = ptrtoint ptr %11 to i64
  br label %20

20:                                               ; preds = %.lr.ph, %20
  %.127 = phi ptr [ %spec.select, %.lr.ph ], [ %27, %20 ]
  %21 = ptrtoint ptr %.127 to i64
  %22 = sub i64 %21, %19
  %.val.i.i = load i64, ptr %.127, align 1, !tbaa !3
  %23 = mul i64 %.val.i.i, -3523014627271114752
  %24 = lshr i64 %23, 52
  %25 = trunc i64 %22 to i32
  %26 = getelementptr inbounds nuw i32, ptr %0, i64 %24
  store i32 %25, ptr %26, align 4, !tbaa !6
  %27 = getelementptr inbounds nuw i8, ptr %.127, i64 3
  %.not = icmp ugt ptr %27, %18
  br i1 %.not, label %.loopexit, label %20, !llvm.loop !28

.loopexit:                                        ; preds = %20, %6, %3
  %.0 = phi i32 [ 0, %3 ], [ %15, %6 ], [ %15, %20 ]
  ret i32 %.0
}